target datalayout = "e-m:e-p270:32:32-p271:32:32-p272:64:64-i64:64-i128:128-f80:128-n8:16:32:64-S128"
target triple = "x86_64-pc-linux-gnu"

%struct.CONF_VALUE = type { ptr, ptr, ptr }

@.str = private unnamed_addr constant [32 x i8] c"../openssl/crypto/x509/v3_utl.c\00", align 1

; Function Attrs: nounwind uwtable
define void @X509V3_conf_free(ptr noundef %0) #0 {
  %2 = alloca ptr, align 8
  store ptr %0, ptr %2, align 8, !tbaa !12
  %3 = load ptr, ptr %2, align 8, !tbaa !12
  %4 = icmp ne ptr %3, null
  br i1 %4, label %6, label %5

5:                                                ; preds = %1
  br label %17

6:                                                ; preds = %1
  %7 = load ptr, ptr %2, align 8, !tbaa !12
  %8 = getelementptr inbounds nuw %struct.CONF_VALUE, ptr %7, i32 0, i32 1
  %9 = load ptr, ptr %8, align 8, !tbaa !19
  call void @CRYPTO_free(ptr noundef %9, ptr noundef @.str, i32 noundef 108)
  %10 = load ptr, ptr %2, align 8, !tbaa !12
  %11 = getelementptr inbounds nuw %struct.CONF_VALUE, ptr %10, i32 0, i32 2
  %12 = load ptr, ptr %11, align 8, !tbaa !20
  call void @CRYPTO_free(ptr noundef %12, ptr noundef @.str, i32 noundef 109)
  %13 = load ptr, ptr %2, align 8, !tbaa !12
  %14 = getelementptr inbounds nuw %struct.CONF_VALUE, ptr %13, i32 0, i32 0
  %15 = load ptr, ptr %14, align 8, !tbaa !17
  call void @CRYPTO_free(ptr noundef %15, ptr noundef @.str, i32 noundef 110)
  %16 = load ptr, ptr %2, align 8, !tbaa !12
  call void @CRYPTO_free(ptr noundef %16, ptr noundef @.str, i32 noundef 111)
  br label %17

17:                                               ; preds = %6, %5
  ret void
}